
wip_rv32i.elf:     file format elf32-littleriscv


Disassembly of section .vectors:

00000000 <reset_handler-0x18>:
   0:	00000013          	nop
   4:	00000013          	nop
   8:	00000013          	nop
   c:	00000013          	nop
  10:	00000013          	nop
  14:	0040006f          	j	18 <reset_handler>

00000018 <reset_handler>:
  18:	00000093          	li	ra,0
  1c:	00008113          	mv	sp,ra
  20:	00008193          	mv	gp,ra
  24:	00008213          	mv	tp,ra
  28:	00008293          	mv	t0,ra
  2c:	00008313          	mv	t1,ra
  30:	00008393          	mv	t2,ra
  34:	00008413          	mv	s0,ra
  38:	00008493          	mv	s1,ra
  3c:	00008513          	mv	a0,ra
  40:	00008593          	mv	a1,ra
  44:	00008613          	mv	a2,ra
  48:	00008693          	mv	a3,ra
  4c:	00008713          	mv	a4,ra
  50:	00008793          	mv	a5,ra
  54:	00008813          	mv	a6,ra
  58:	00008893          	mv	a7,ra
  5c:	00008913          	mv	s2,ra
  60:	00008993          	mv	s3,ra
  64:	00008a13          	mv	s4,ra
  68:	00008a93          	mv	s5,ra
  6c:	00008b13          	mv	s6,ra
  70:	00008b93          	mv	s7,ra
  74:	00008c13          	mv	s8,ra
  78:	00008c93          	mv	s9,ra
  7c:	00008d13          	mv	s10,ra
  80:	00008d93          	mv	s11,ra
  84:	00008e13          	mv	t3,ra
  88:	00008e93          	mv	t4,ra
  8c:	00008f13          	mv	t5,ra
  90:	00008f93          	mv	t6,ra
  94:	00c002b7          	lui	t0,0xc00
  98:	00c28293          	addi	t0,t0,12 # c0000c <_stack_start+0x7fec0c>
  9c:	0002a103          	lw	sp,0(t0)
  a0:	5c9000ef          	jal	ra,e68 <main>
  a4:	00100073          	ebreak

Disassembly of section .text:

000000a8 <draw_char>:
  a8:	fd010113          	addi	sp,sp,-48
  ac:	02812623          	sw	s0,44(sp)
  b0:	03010413          	addi	s0,sp,48
  b4:	00050793          	mv	a5,a0
  b8:	fcb42c23          	sw	a1,-40(s0)
  bc:	fcc42a23          	sw	a2,-44(s0)
  c0:	fcf40fa3          	sb	a5,-33(s0)
  c4:	fd842703          	lw	a4,-40(s0)
  c8:	00070793          	mv	a5,a4
  cc:	00279793          	slli	a5,a5,0x2
  d0:	00e787b3          	add	a5,a5,a4
  d4:	00679793          	slli	a5,a5,0x6
  d8:	fef42623          	sw	a5,-20(s0)
  dc:	fd442783          	lw	a5,-44(s0)
  e0:	00279793          	slli	a5,a5,0x2
  e4:	fef42423          	sw	a5,-24(s0)
  e8:	fe842703          	lw	a4,-24(s0)
  ec:	fec42783          	lw	a5,-20(s0)
  f0:	00f70733          	add	a4,a4,a5
  f4:	034007b7          	lui	a5,0x3400
  f8:	00f707b3          	add	a5,a4,a5
  fc:	fef42223          	sw	a5,-28(s0)
 100:	fe842703          	lw	a4,-24(s0)
 104:	fec42783          	lw	a5,-20(s0)
 108:	00f70733          	add	a4,a4,a5
 10c:	034007b7          	lui	a5,0x3400
 110:	14078793          	addi	a5,a5,320 # 3400140 <_stack+0x2ffed40>
 114:	00f707b3          	add	a5,a4,a5
 118:	fef42023          	sw	a5,-32(s0)
 11c:	fdf44783          	lbu	a5,-33(s0)
 120:	00400737          	lui	a4,0x400
 124:	0d470713          	addi	a4,a4,212 # 4000d4 <ASCII_TOP>
 128:	00279793          	slli	a5,a5,0x2
 12c:	00f707b3          	add	a5,a4,a5
 130:	0007a783          	lw	a5,0(a5)
 134:	00078713          	mv	a4,a5
 138:	fe442783          	lw	a5,-28(s0)
 13c:	00e7a023          	sw	a4,0(a5)
 140:	fdf44783          	lbu	a5,-33(s0)
 144:	00400737          	lui	a4,0x400
 148:	25870713          	addi	a4,a4,600 # 400258 <ASCII_BOTTOM>
 14c:	00279793          	slli	a5,a5,0x2
 150:	00f707b3          	add	a5,a4,a5
 154:	0007a783          	lw	a5,0(a5)
 158:	00078713          	mv	a4,a5
 15c:	fe042783          	lw	a5,-32(s0)
 160:	00e7a023          	sw	a4,0(a5)
 164:	00000013          	nop
 168:	02c12403          	lw	s0,44(sp)
 16c:	03010113          	addi	sp,sp,48
 170:	00008067          	ret

00000174 <rvc_printf>:
 174:	fd010113          	addi	sp,sp,-48
 178:	02112623          	sw	ra,44(sp)
 17c:	02812423          	sw	s0,40(sp)
 180:	03010413          	addi	s0,sp,48
 184:	fca42e23          	sw	a0,-36(s0)
 188:	fe042623          	sw	zero,-20(s0)
 18c:	fe042423          	sw	zero,-24(s0)
 190:	fe042223          	sw	zero,-28(s0)
 194:	00c007b7          	lui	a5,0xc00
 198:	22078793          	addi	a5,a5,544 # c00220 <_stack+0x7fee20>
 19c:	0007a783          	lw	a5,0(a5)
 1a0:	fef42223          	sw	a5,-28(s0)
 1a4:	00c007b7          	lui	a5,0xc00
 1a8:	23478793          	addi	a5,a5,564 # c00234 <_stack+0x7fee34>
 1ac:	0007a783          	lw	a5,0(a5)
 1b0:	fef42423          	sw	a5,-24(s0)
 1b4:	0b80006f          	j	26c <rvc_printf+0xf8>
 1b8:	fec42783          	lw	a5,-20(s0)
 1bc:	fdc42703          	lw	a4,-36(s0)
 1c0:	00f707b3          	add	a5,a4,a5
 1c4:	0007c703          	lbu	a4,0(a5)
 1c8:	00a00793          	li	a5,10
 1cc:	02f71a63          	bne	a4,a5,200 <rvc_printf+0x8c>
 1d0:	fe042223          	sw	zero,-28(s0)
 1d4:	fe842783          	lw	a5,-24(s0)
 1d8:	00278793          	addi	a5,a5,2
 1dc:	fef42423          	sw	a5,-24(s0)
 1e0:	fe842703          	lw	a4,-24(s0)
 1e4:	07800793          	li	a5,120
 1e8:	00f71463          	bne	a4,a5,1f0 <rvc_printf+0x7c>
 1ec:	fe042423          	sw	zero,-24(s0)
 1f0:	fec42783          	lw	a5,-20(s0)
 1f4:	00178793          	addi	a5,a5,1
 1f8:	fef42623          	sw	a5,-20(s0)
 1fc:	0700006f          	j	26c <rvc_printf+0xf8>
 200:	fec42783          	lw	a5,-20(s0)
 204:	fdc42703          	lw	a4,-36(s0)
 208:	00f707b3          	add	a5,a4,a5
 20c:	0007c783          	lbu	a5,0(a5)
 210:	fe842703          	lw	a4,-24(s0)
 214:	fe442683          	lw	a3,-28(s0)
 218:	00068613          	mv	a2,a3
 21c:	00070593          	mv	a1,a4
 220:	00078513          	mv	a0,a5
 224:	e85ff0ef          	jal	ra,a8 <draw_char>
 228:	fe442783          	lw	a5,-28(s0)
 22c:	00178793          	addi	a5,a5,1
 230:	fef42223          	sw	a5,-28(s0)
 234:	fe442703          	lw	a4,-28(s0)
 238:	05000793          	li	a5,80
 23c:	02f71263          	bne	a4,a5,260 <rvc_printf+0xec>
 240:	fe042223          	sw	zero,-28(s0)
 244:	fe842783          	lw	a5,-24(s0)
 248:	00278793          	addi	a5,a5,2
 24c:	fef42423          	sw	a5,-24(s0)
 250:	fe842703          	lw	a4,-24(s0)
 254:	07800793          	li	a5,120
 258:	00f71463          	bne	a4,a5,260 <rvc_printf+0xec>
 25c:	fe042423          	sw	zero,-24(s0)
 260:	fec42783          	lw	a5,-20(s0)
 264:	00178793          	addi	a5,a5,1
 268:	fef42623          	sw	a5,-20(s0)
 26c:	fec42783          	lw	a5,-20(s0)
 270:	fdc42703          	lw	a4,-36(s0)
 274:	00f707b3          	add	a5,a4,a5
 278:	0007c783          	lbu	a5,0(a5)
 27c:	f2079ee3          	bnez	a5,1b8 <rvc_printf+0x44>
 280:	00c007b7          	lui	a5,0xc00
 284:	22078793          	addi	a5,a5,544 # c00220 <_stack+0x7fee20>
 288:	fe442703          	lw	a4,-28(s0)
 28c:	00e7a023          	sw	a4,0(a5)
 290:	00c007b7          	lui	a5,0xc00
 294:	23478793          	addi	a5,a5,564 # c00234 <_stack+0x7fee34>
 298:	fe842703          	lw	a4,-24(s0)
 29c:	00e7a023          	sw	a4,0(a5)
 2a0:	00000013          	nop
 2a4:	02c12083          	lw	ra,44(sp)
 2a8:	02812403          	lw	s0,40(sp)
 2ac:	03010113          	addi	sp,sp,48
 2b0:	00008067          	ret

000002b4 <draw_symbol>:
 2b4:	fd010113          	addi	sp,sp,-48
 2b8:	02812623          	sw	s0,44(sp)
 2bc:	03010413          	addi	s0,sp,48
 2c0:	fca42e23          	sw	a0,-36(s0)
 2c4:	fcb42c23          	sw	a1,-40(s0)
 2c8:	fcc42a23          	sw	a2,-44(s0)
 2cc:	fd842703          	lw	a4,-40(s0)
 2d0:	00070793          	mv	a5,a4
 2d4:	00279793          	slli	a5,a5,0x2
 2d8:	00e787b3          	add	a5,a5,a4
 2dc:	00679793          	slli	a5,a5,0x6
 2e0:	fef42623          	sw	a5,-20(s0)
 2e4:	fd442783          	lw	a5,-44(s0)
 2e8:	00279793          	slli	a5,a5,0x2
 2ec:	fef42423          	sw	a5,-24(s0)
 2f0:	fe842703          	lw	a4,-24(s0)
 2f4:	fec42783          	lw	a5,-20(s0)
 2f8:	00f70733          	add	a4,a4,a5
 2fc:	034007b7          	lui	a5,0x3400
 300:	00f707b3          	add	a5,a4,a5
 304:	fef42223          	sw	a5,-28(s0)
 308:	fe842703          	lw	a4,-24(s0)
 30c:	fec42783          	lw	a5,-20(s0)
 310:	00f70733          	add	a4,a4,a5
 314:	034007b7          	lui	a5,0x3400
 318:	14078793          	addi	a5,a5,320 # 3400140 <_stack+0x2ffed40>
 31c:	00f707b3          	add	a5,a4,a5
 320:	fef42023          	sw	a5,-32(s0)
 324:	004007b7          	lui	a5,0x400
 328:	3dc78713          	addi	a4,a5,988 # 4003dc <ANIME_TOP>
 32c:	fdc42783          	lw	a5,-36(s0)
 330:	00279793          	slli	a5,a5,0x2
 334:	00f707b3          	add	a5,a4,a5
 338:	0007a783          	lw	a5,0(a5)
 33c:	00078713          	mv	a4,a5
 340:	fe442783          	lw	a5,-28(s0)
 344:	00e7a023          	sw	a4,0(a5)
 348:	004007b7          	lui	a5,0x400
 34c:	3f478713          	addi	a4,a5,1012 # 4003f4 <ANIME_BOTTOM>
 350:	fdc42783          	lw	a5,-36(s0)
 354:	00279793          	slli	a5,a5,0x2
 358:	00f707b3          	add	a5,a4,a5
 35c:	0007a783          	lw	a5,0(a5)
 360:	00078713          	mv	a4,a5
 364:	fe042783          	lw	a5,-32(s0)
 368:	00e7a023          	sw	a4,0(a5)
 36c:	00000013          	nop
 370:	02c12403          	lw	s0,44(sp)
 374:	03010113          	addi	sp,sp,48
 378:	00008067          	ret

0000037c <set_cursor>:
 37c:	fe010113          	addi	sp,sp,-32
 380:	00812e23          	sw	s0,28(sp)
 384:	02010413          	addi	s0,sp,32
 388:	fea42623          	sw	a0,-20(s0)
 38c:	feb42423          	sw	a1,-24(s0)
 390:	00c007b7          	lui	a5,0xc00
 394:	22078793          	addi	a5,a5,544 # c00220 <_stack+0x7fee20>
 398:	fe842703          	lw	a4,-24(s0)
 39c:	00e7a023          	sw	a4,0(a5)
 3a0:	00c007b7          	lui	a5,0xc00
 3a4:	23478793          	addi	a5,a5,564 # c00234 <_stack+0x7fee34>
 3a8:	fec42703          	lw	a4,-20(s0)
 3ac:	00e7a023          	sw	a4,0(a5)
 3b0:	00000013          	nop
 3b4:	01c12403          	lw	s0,28(sp)
 3b8:	02010113          	addi	sp,sp,32
 3bc:	00008067          	ret

000003c0 <clear_screen>:
 3c0:	fe010113          	addi	sp,sp,-32
 3c4:	00812e23          	sw	s0,28(sp)
 3c8:	02010413          	addi	s0,sp,32
 3cc:	fe042623          	sw	zero,-20(s0)
 3d0:	034007b7          	lui	a5,0x3400
 3d4:	fef42423          	sw	a5,-24(s0)
 3d8:	fe042623          	sw	zero,-20(s0)
 3dc:	0240006f          	j	400 <_min_stack>
 3e0:	fec42783          	lw	a5,-20(s0)
 3e4:	00279793          	slli	a5,a5,0x2
 3e8:	fe842703          	lw	a4,-24(s0)
 3ec:	00f707b3          	add	a5,a4,a5
 3f0:	0007a023          	sw	zero,0(a5) # 3400000 <_stack+0x2ffec00>
 3f4:	fec42783          	lw	a5,-20(s0)
 3f8:	00178793          	addi	a5,a5,1
 3fc:	fef42623          	sw	a5,-20(s0)
 400:	fec42703          	lw	a4,-20(s0)
 404:	000027b7          	lui	a5,0x2
 408:	57f78793          	addi	a5,a5,1407 # 257f <_endtext+0x15a7>
 40c:	fce7dae3          	bge	a5,a4,3e0 <clear_screen+0x20>
 410:	00000013          	nop
 414:	00000013          	nop
 418:	01c12403          	lw	s0,28(sp)
 41c:	02010113          	addi	sp,sp,32
 420:	00008067          	ret

00000424 <rvc_print_int>:
 424:	fc010113          	addi	sp,sp,-64
 428:	02112e23          	sw	ra,60(sp)
 42c:	02812c23          	sw	s0,56(sp)
 430:	04010413          	addi	s0,sp,64
 434:	fca42623          	sw	a0,-52(s0)
 438:	fe042623          	sw	zero,-20(s0)
 43c:	fe042423          	sw	zero,-24(s0)
 440:	fcc42783          	lw	a5,-52(s0)
 444:	0207d663          	bgez	a5,470 <rvc_print_int+0x4c>
 448:	fec42783          	lw	a5,-20(s0)
 44c:	00178713          	addi	a4,a5,1
 450:	fee42623          	sw	a4,-20(s0)
 454:	ff040713          	addi	a4,s0,-16
 458:	00f707b3          	add	a5,a4,a5
 45c:	02d00713          	li	a4,45
 460:	fee78023          	sb	a4,-32(a5)
 464:	fcc42783          	lw	a5,-52(s0)
 468:	40f007b3          	neg	a5,a5
 46c:	fcf42623          	sw	a5,-52(s0)
 470:	fcc42783          	lw	a5,-52(s0)
 474:	00a00593          	li	a1,10
 478:	00078513          	mv	a0,a5
 47c:	32d000ef          	jal	ra,fa8 <__modsi3>
 480:	00050793          	mv	a5,a0
 484:	0ff7f713          	zext.b	a4,a5
 488:	fec42783          	lw	a5,-20(s0)
 48c:	00178693          	addi	a3,a5,1
 490:	fed42623          	sw	a3,-20(s0)
 494:	03070713          	addi	a4,a4,48
 498:	0ff77713          	zext.b	a4,a4
 49c:	ff040693          	addi	a3,s0,-16
 4a0:	00f687b3          	add	a5,a3,a5
 4a4:	fee78023          	sb	a4,-32(a5)
 4a8:	fcc42783          	lw	a5,-52(s0)
 4ac:	00a00593          	li	a1,10
 4b0:	00078513          	mv	a0,a5
 4b4:	271000ef          	jal	ra,f24 <__divsi3>
 4b8:	00050793          	mv	a5,a0
 4bc:	fcf42623          	sw	a5,-52(s0)
 4c0:	fcc42783          	lw	a5,-52(s0)
 4c4:	faf046e3          	bgtz	a5,470 <rvc_print_int+0x4c>
 4c8:	fe042423          	sw	zero,-24(s0)
 4cc:	0700006f          	j	53c <rvc_print_int+0x118>
 4d0:	fe842783          	lw	a5,-24(s0)
 4d4:	ff040713          	addi	a4,s0,-16
 4d8:	00f707b3          	add	a5,a4,a5
 4dc:	fe07c783          	lbu	a5,-32(a5)
 4e0:	fcf40fa3          	sb	a5,-33(s0)
 4e4:	fec42703          	lw	a4,-20(s0)
 4e8:	fe842783          	lw	a5,-24(s0)
 4ec:	40f707b3          	sub	a5,a4,a5
 4f0:	fff78793          	addi	a5,a5,-1
 4f4:	ff040713          	addi	a4,s0,-16
 4f8:	00f707b3          	add	a5,a4,a5
 4fc:	fe07c703          	lbu	a4,-32(a5)
 500:	fe842783          	lw	a5,-24(s0)
 504:	ff040693          	addi	a3,s0,-16
 508:	00f687b3          	add	a5,a3,a5
 50c:	fee78023          	sb	a4,-32(a5)
 510:	fec42703          	lw	a4,-20(s0)
 514:	fe842783          	lw	a5,-24(s0)
 518:	40f707b3          	sub	a5,a4,a5
 51c:	fff78793          	addi	a5,a5,-1
 520:	ff040713          	addi	a4,s0,-16
 524:	00f707b3          	add	a5,a4,a5
 528:	fdf44703          	lbu	a4,-33(s0)
 52c:	fee78023          	sb	a4,-32(a5)
 530:	fe842783          	lw	a5,-24(s0)
 534:	00178793          	addi	a5,a5,1
 538:	fef42423          	sw	a5,-24(s0)
 53c:	fec42783          	lw	a5,-20(s0)
 540:	01f7d713          	srli	a4,a5,0x1f
 544:	00f707b3          	add	a5,a4,a5
 548:	4017d793          	srai	a5,a5,0x1
 54c:	00078713          	mv	a4,a5
 550:	fe842783          	lw	a5,-24(s0)
 554:	f6e7cee3          	blt	a5,a4,4d0 <rvc_print_int+0xac>
 558:	00c007b7          	lui	a5,0xc00
 55c:	23478793          	addi	a5,a5,564 # c00234 <_stack+0x7fee34>
 560:	0007a783          	lw	a5,0(a5)
 564:	fef42223          	sw	a5,-28(s0)
 568:	00c007b7          	lui	a5,0xc00
 56c:	22078793          	addi	a5,a5,544 # c00220 <_stack+0x7fee20>
 570:	0007a783          	lw	a5,0(a5)
 574:	fef42023          	sw	a5,-32(s0)
 578:	fe042423          	sw	zero,-24(s0)
 57c:	0680006f          	j	5e4 <rvc_print_int+0x1c0>
 580:	fe842783          	lw	a5,-24(s0)
 584:	ff040713          	addi	a4,s0,-16
 588:	00f707b3          	add	a5,a4,a5
 58c:	fe07c783          	lbu	a5,-32(a5)
 590:	fe042603          	lw	a2,-32(s0)
 594:	fe442583          	lw	a1,-28(s0)
 598:	00078513          	mv	a0,a5
 59c:	b0dff0ef          	jal	ra,a8 <draw_char>
 5a0:	fe042783          	lw	a5,-32(s0)
 5a4:	00178793          	addi	a5,a5,1
 5a8:	fef42023          	sw	a5,-32(s0)
 5ac:	fe042703          	lw	a4,-32(s0)
 5b0:	05000793          	li	a5,80
 5b4:	00f71a63          	bne	a4,a5,5c8 <rvc_print_int+0x1a4>
 5b8:	fe042023          	sw	zero,-32(s0)
 5bc:	fe442783          	lw	a5,-28(s0)
 5c0:	00278793          	addi	a5,a5,2
 5c4:	fef42223          	sw	a5,-28(s0)
 5c8:	fe442703          	lw	a4,-28(s0)
 5cc:	07700793          	li	a5,119
 5d0:	00e7d463          	bge	a5,a4,5d8 <rvc_print_int+0x1b4>
 5d4:	fe042223          	sw	zero,-28(s0)
 5d8:	fe842783          	lw	a5,-24(s0)
 5dc:	00178793          	addi	a5,a5,1
 5e0:	fef42423          	sw	a5,-24(s0)
 5e4:	fe842703          	lw	a4,-24(s0)
 5e8:	fec42783          	lw	a5,-20(s0)
 5ec:	f8f74ae3          	blt	a4,a5,580 <rvc_print_int+0x15c>
 5f0:	00c007b7          	lui	a5,0xc00
 5f4:	22078793          	addi	a5,a5,544 # c00220 <_stack+0x7fee20>
 5f8:	fe042703          	lw	a4,-32(s0)
 5fc:	00e7a023          	sw	a4,0(a5)
 600:	00c007b7          	lui	a5,0xc00
 604:	23478793          	addi	a5,a5,564 # c00234 <_stack+0x7fee34>
 608:	fe442703          	lw	a4,-28(s0)
 60c:	00e7a023          	sw	a4,0(a5)
 610:	00000013          	nop
 614:	03c12083          	lw	ra,60(sp)
 618:	03812403          	lw	s0,56(sp)
 61c:	04010113          	addi	sp,sp,64
 620:	00008067          	ret

00000624 <rvc_delay>:
 624:	fd010113          	addi	sp,sp,-48
 628:	02812623          	sw	s0,44(sp)
 62c:	03010413          	addi	s0,sp,48
 630:	fca42e23          	sw	a0,-36(s0)
 634:	fe042623          	sw	zero,-20(s0)
 638:	0100006f          	j	648 <rvc_delay+0x24>
 63c:	fec42783          	lw	a5,-20(s0)
 640:	00178793          	addi	a5,a5,1
 644:	fef42623          	sw	a5,-20(s0)
 648:	fec42703          	lw	a4,-20(s0)
 64c:	fdc42783          	lw	a5,-36(s0)
 650:	fef746e3          	blt	a4,a5,63c <rvc_delay+0x18>
 654:	00000013          	nop
 658:	00000013          	nop
 65c:	02c12403          	lw	s0,44(sp)
 660:	03010113          	addi	sp,sp,48
 664:	00008067          	ret

00000668 <hex7seg>:
 668:	fd010113          	addi	sp,sp,-48
 66c:	02812623          	sw	s0,44(sp)
 670:	03010413          	addi	s0,sp,48
 674:	fca42e23          	sw	a0,-36(s0)
 678:	fdc42703          	lw	a4,-36(s0)
 67c:	00e00793          	li	a5,14
 680:	0ce7ea63          	bltu	a5,a4,754 <hex7seg+0xec>
 684:	fdc42783          	lw	a5,-36(s0)
 688:	00279713          	slli	a4,a5,0x2
 68c:	004007b7          	lui	a5,0x400
 690:	00078793          	mv	a5,a5
 694:	00f707b3          	add	a5,a4,a5
 698:	0007a783          	lw	a5,0(a5) # 400000 <_endtext+0x3ff028>
 69c:	00078067          	jr	a5
 6a0:	0c000793          	li	a5,192
 6a4:	fef42623          	sw	a5,-20(s0)
 6a8:	0b80006f          	j	760 <hex7seg+0xf8>
 6ac:	0f900793          	li	a5,249
 6b0:	fef42623          	sw	a5,-20(s0)
 6b4:	0ac0006f          	j	760 <hex7seg+0xf8>
 6b8:	0a400793          	li	a5,164
 6bc:	fef42623          	sw	a5,-20(s0)
 6c0:	0a00006f          	j	760 <hex7seg+0xf8>
 6c4:	0b000793          	li	a5,176
 6c8:	fef42623          	sw	a5,-20(s0)
 6cc:	0940006f          	j	760 <hex7seg+0xf8>
 6d0:	09900793          	li	a5,153
 6d4:	fef42623          	sw	a5,-20(s0)
 6d8:	0880006f          	j	760 <hex7seg+0xf8>
 6dc:	09200793          	li	a5,146
 6e0:	fef42623          	sw	a5,-20(s0)
 6e4:	07c0006f          	j	760 <hex7seg+0xf8>
 6e8:	08200793          	li	a5,130
 6ec:	fef42623          	sw	a5,-20(s0)
 6f0:	0700006f          	j	760 <hex7seg+0xf8>
 6f4:	0f800793          	li	a5,248
 6f8:	fef42623          	sw	a5,-20(s0)
 6fc:	0640006f          	j	760 <hex7seg+0xf8>
 700:	08000793          	li	a5,128
 704:	fef42623          	sw	a5,-20(s0)
 708:	0580006f          	j	760 <hex7seg+0xf8>
 70c:	09000793          	li	a5,144
 710:	fef42623          	sw	a5,-20(s0)
 714:	04c0006f          	j	760 <hex7seg+0xf8>
 718:	08800793          	li	a5,136
 71c:	fef42623          	sw	a5,-20(s0)
 720:	0400006f          	j	760 <hex7seg+0xf8>
 724:	08300793          	li	a5,131
 728:	fef42623          	sw	a5,-20(s0)
 72c:	0340006f          	j	760 <hex7seg+0xf8>
 730:	0c600793          	li	a5,198
 734:	fef42623          	sw	a5,-20(s0)
 738:	0280006f          	j	760 <hex7seg+0xf8>
 73c:	0a100793          	li	a5,161
 740:	fef42623          	sw	a5,-20(s0)
 744:	01c0006f          	j	760 <hex7seg+0xf8>
 748:	08600793          	li	a5,134
 74c:	fef42623          	sw	a5,-20(s0)
 750:	0100006f          	j	760 <hex7seg+0xf8>
 754:	08000793          	li	a5,128
 758:	fef42623          	sw	a5,-20(s0)
 75c:	00000013          	nop
 760:	fec42783          	lw	a5,-20(s0)
 764:	00078513          	mv	a0,a5
 768:	02c12403          	lw	s0,44(sp)
 76c:	03010113          	addi	sp,sp,48
 770:	00008067          	ret

00000774 <fpga_7seg_print>:
 774:	fe010113          	addi	sp,sp,-32
 778:	00112e23          	sw	ra,28(sp)
 77c:	00812c23          	sw	s0,24(sp)
 780:	00912a23          	sw	s1,20(sp)
 784:	02010413          	addi	s0,sp,32
 788:	fea42623          	sw	a0,-20(s0)
 78c:	fec42783          	lw	a5,-20(s0)
 790:	00a00593          	li	a1,10
 794:	00078513          	mv	a0,a5
 798:	011000ef          	jal	ra,fa8 <__modsi3>
 79c:	00050793          	mv	a5,a0
 7a0:	03c024b7          	lui	s1,0x3c02
 7a4:	00078513          	mv	a0,a5
 7a8:	ec1ff0ef          	jal	ra,668 <hex7seg>
 7ac:	00050793          	mv	a5,a0
 7b0:	00f4a023          	sw	a5,0(s1) # 3c02000 <_stack+0x3800c00>
 7b4:	fec42783          	lw	a5,-20(s0)
 7b8:	00a00593          	li	a1,10
 7bc:	00078513          	mv	a0,a5
 7c0:	764000ef          	jal	ra,f24 <__divsi3>
 7c4:	00050793          	mv	a5,a0
 7c8:	00a00593          	li	a1,10
 7cc:	00078513          	mv	a0,a5
 7d0:	7d8000ef          	jal	ra,fa8 <__modsi3>
 7d4:	00050793          	mv	a5,a0
 7d8:	00078713          	mv	a4,a5
 7dc:	03c027b7          	lui	a5,0x3c02
 7e0:	00478493          	addi	s1,a5,4 # 3c02004 <_stack+0x3800c04>
 7e4:	00070513          	mv	a0,a4
 7e8:	e81ff0ef          	jal	ra,668 <hex7seg>
 7ec:	00050793          	mv	a5,a0
 7f0:	00f4a023          	sw	a5,0(s1)
 7f4:	fec42783          	lw	a5,-20(s0)
 7f8:	06400593          	li	a1,100
 7fc:	00078513          	mv	a0,a5
 800:	724000ef          	jal	ra,f24 <__divsi3>
 804:	00050793          	mv	a5,a0
 808:	00a00593          	li	a1,10
 80c:	00078513          	mv	a0,a5
 810:	798000ef          	jal	ra,fa8 <__modsi3>
 814:	00050793          	mv	a5,a0
 818:	00078713          	mv	a4,a5
 81c:	03c027b7          	lui	a5,0x3c02
 820:	00878493          	addi	s1,a5,8 # 3c02008 <_stack+0x3800c08>
 824:	00070513          	mv	a0,a4
 828:	e41ff0ef          	jal	ra,668 <hex7seg>
 82c:	00050793          	mv	a5,a0
 830:	00f4a023          	sw	a5,0(s1)
 834:	fec42783          	lw	a5,-20(s0)
 838:	3e800593          	li	a1,1000
 83c:	00078513          	mv	a0,a5
 840:	6e4000ef          	jal	ra,f24 <__divsi3>
 844:	00050793          	mv	a5,a0
 848:	00a00593          	li	a1,10
 84c:	00078513          	mv	a0,a5
 850:	758000ef          	jal	ra,fa8 <__modsi3>
 854:	00050793          	mv	a5,a0
 858:	00078713          	mv	a4,a5
 85c:	03c027b7          	lui	a5,0x3c02
 860:	00c78493          	addi	s1,a5,12 # 3c0200c <_stack+0x3800c0c>
 864:	00070513          	mv	a0,a4
 868:	e01ff0ef          	jal	ra,668 <hex7seg>
 86c:	00050793          	mv	a5,a0
 870:	00f4a023          	sw	a5,0(s1)
 874:	fec42703          	lw	a4,-20(s0)
 878:	000027b7          	lui	a5,0x2
 87c:	71078593          	addi	a1,a5,1808 # 2710 <_endtext+0x1738>
 880:	00070513          	mv	a0,a4
 884:	6a0000ef          	jal	ra,f24 <__divsi3>
 888:	00050793          	mv	a5,a0
 88c:	00a00593          	li	a1,10
 890:	00078513          	mv	a0,a5
 894:	714000ef          	jal	ra,fa8 <__modsi3>
 898:	00050793          	mv	a5,a0
 89c:	00078713          	mv	a4,a5
 8a0:	03c027b7          	lui	a5,0x3c02
 8a4:	01078493          	addi	s1,a5,16 # 3c02010 <_stack+0x3800c10>
 8a8:	00070513          	mv	a0,a4
 8ac:	dbdff0ef          	jal	ra,668 <hex7seg>
 8b0:	00050793          	mv	a5,a0
 8b4:	00f4a023          	sw	a5,0(s1)
 8b8:	fec42703          	lw	a4,-20(s0)
 8bc:	000187b7          	lui	a5,0x18
 8c0:	6a078593          	addi	a1,a5,1696 # 186a0 <_endtext+0x176c8>
 8c4:	00070513          	mv	a0,a4
 8c8:	65c000ef          	jal	ra,f24 <__divsi3>
 8cc:	00050793          	mv	a5,a0
 8d0:	00a00593          	li	a1,10
 8d4:	00078513          	mv	a0,a5
 8d8:	6d0000ef          	jal	ra,fa8 <__modsi3>
 8dc:	00050793          	mv	a5,a0
 8e0:	00078713          	mv	a4,a5
 8e4:	03c027b7          	lui	a5,0x3c02
 8e8:	01478493          	addi	s1,a5,20 # 3c02014 <_stack+0x3800c14>
 8ec:	00070513          	mv	a0,a4
 8f0:	d79ff0ef          	jal	ra,668 <hex7seg>
 8f4:	00050793          	mv	a5,a0
 8f8:	00f4a023          	sw	a5,0(s1)
 8fc:	00000013          	nop
 900:	01c12083          	lw	ra,28(sp)
 904:	01812403          	lw	s0,24(sp)
 908:	01412483          	lw	s1,20(sp)
 90c:	02010113          	addi	sp,sp,32
 910:	00008067          	ret

00000914 <run_t0>:
 914:	fe010113          	addi	sp,sp,-32
 918:	00112e23          	sw	ra,28(sp)
 91c:	00812c23          	sw	s0,24(sp)
 920:	02010413          	addi	s0,sp,32
 924:	00000593          	li	a1,0
 928:	01e00513          	li	a0,30
 92c:	a51ff0ef          	jal	ra,37c <set_cursor>
 930:	004007b7          	lui	a5,0x400
 934:	03c78513          	addi	a0,a5,60 # 40003c <_endtext+0x3ff064>
 938:	83dff0ef          	jal	ra,174 <rvc_printf>
 93c:	fe042623          	sw	zero,-20(s0)
 940:	09c0006f          	j	9dc <run_t0+0xc8>
 944:	02800593          	li	a1,40
 948:	01e00513          	li	a0,30
 94c:	a31ff0ef          	jal	ra,37c <set_cursor>
 950:	fec42503          	lw	a0,-20(s0)
 954:	ad1ff0ef          	jal	ra,424 <rvc_print_int>
 958:	03c027b7          	lui	a5,0x3c02
 95c:	01878793          	addi	a5,a5,24 # 3c02018 <_stack+0x3800c18>
 960:	fec42703          	lw	a4,-20(s0)
 964:	00e7a023          	sw	a4,0(a5)
 968:	03c027b7          	lui	a5,0x3c02
 96c:	02478793          	addi	a5,a5,36 # 3c02024 <_stack+0x3800c24>
 970:	0007a783          	lw	a5,0(a5)
 974:	fef42223          	sw	a5,-28(s0)
 978:	03200593          	li	a1,50
 97c:	01e00513          	li	a0,30
 980:	9fdff0ef          	jal	ra,37c <set_cursor>
 984:	004007b7          	lui	a5,0x400
 988:	06078513          	addi	a0,a5,96 # 400060 <_endtext+0x3ff088>
 98c:	fe8ff0ef          	jal	ra,174 <rvc_printf>
 990:	03200593          	li	a1,50
 994:	01e00513          	li	a0,30
 998:	9e5ff0ef          	jal	ra,37c <set_cursor>
 99c:	fe442503          	lw	a0,-28(s0)
 9a0:	a85ff0ef          	jal	ra,424 <rvc_print_int>
 9a4:	fec42503          	lw	a0,-20(s0)
 9a8:	dcdff0ef          	jal	ra,774 <fpga_7seg_print>
 9ac:	fe042423          	sw	zero,-24(s0)
 9b0:	0100006f          	j	9c0 <run_t0+0xac>
 9b4:	fe842783          	lw	a5,-24(s0)
 9b8:	00178793          	addi	a5,a5,1
 9bc:	fef42423          	sw	a5,-24(s0)
 9c0:	fe842703          	lw	a4,-24(s0)
 9c4:	000027b7          	lui	a5,0x2
 9c8:	70f78793          	addi	a5,a5,1807 # 270f <_endtext+0x1737>
 9cc:	fee7d4e3          	bge	a5,a4,9b4 <run_t0+0xa0>
 9d0:	fec42783          	lw	a5,-20(s0)
 9d4:	00178793          	addi	a5,a5,1
 9d8:	fef42623          	sw	a5,-20(s0)
 9dc:	fec42703          	lw	a4,-20(s0)
 9e0:	000187b7          	lui	a5,0x18
 9e4:	69f78793          	addi	a5,a5,1695 # 1869f <_endtext+0x176c7>
 9e8:	f4e7dee3          	bge	a5,a4,944 <run_t0+0x30>
 9ec:	f39ff06f          	j	924 <run_t0+0x10>

000009f0 <run_t1>:
 9f0:	ff010113          	addi	sp,sp,-16
 9f4:	00112623          	sw	ra,12(sp)
 9f8:	00812423          	sw	s0,8(sp)
 9fc:	01010413          	addi	s0,sp,16
 a00:	00000593          	li	a1,0
 a04:	02800513          	li	a0,40
 a08:	975ff0ef          	jal	ra,37c <set_cursor>
 a0c:	004007b7          	lui	a5,0x400
 a10:	06878513          	addi	a0,a5,104 # 400068 <_endtext+0x3ff090>
 a14:	f60ff0ef          	jal	ra,174 <rvc_printf>
 a18:	fe9ff06f          	j	a00 <run_t1+0x10>

00000a1c <matrix_calc>:
 a1c:	f6010113          	addi	sp,sp,-160
 a20:	08112e23          	sw	ra,156(sp)
 a24:	08812c23          	sw	s0,152(sp)
 a28:	08912a23          	sw	s1,148(sp)
 a2c:	0a010413          	addi	s0,sp,160
 a30:	00000593          	li	a1,0
 a34:	04600513          	li	a0,70
 a38:	945ff0ef          	jal	ra,37c <set_cursor>
 a3c:	004007b7          	lui	a5,0x400
 a40:	0b078793          	addi	a5,a5,176 # 4000b0 <_endtext+0x3ff0d8>
 a44:	0007a303          	lw	t1,0(a5)
 a48:	0047a883          	lw	a7,4(a5)
 a4c:	0087a803          	lw	a6,8(a5)
 a50:	00c7a503          	lw	a0,12(a5)
 a54:	0107a583          	lw	a1,16(a5)
 a58:	0147a603          	lw	a2,20(a5)
 a5c:	0187a683          	lw	a3,24(a5)
 a60:	01c7a703          	lw	a4,28(a5)
 a64:	0207a783          	lw	a5,32(a5)
 a68:	fa642423          	sw	t1,-88(s0)
 a6c:	fb142623          	sw	a7,-84(s0)
 a70:	fb042823          	sw	a6,-80(s0)
 a74:	faa42a23          	sw	a0,-76(s0)
 a78:	fab42c23          	sw	a1,-72(s0)
 a7c:	fac42e23          	sw	a2,-68(s0)
 a80:	fcd42023          	sw	a3,-64(s0)
 a84:	fce42223          	sw	a4,-60(s0)
 a88:	fcf42423          	sw	a5,-56(s0)
 a8c:	004007b7          	lui	a5,0x400
 a90:	0b078793          	addi	a5,a5,176 # 4000b0 <_endtext+0x3ff0d8>
 a94:	0007a303          	lw	t1,0(a5)
 a98:	0047a883          	lw	a7,4(a5)
 a9c:	0087a803          	lw	a6,8(a5)
 aa0:	00c7a503          	lw	a0,12(a5)
 aa4:	0107a583          	lw	a1,16(a5)
 aa8:	0147a603          	lw	a2,20(a5)
 aac:	0187a683          	lw	a3,24(a5)
 ab0:	01c7a703          	lw	a4,28(a5)
 ab4:	0207a783          	lw	a5,32(a5)
 ab8:	f8642223          	sw	t1,-124(s0)
 abc:	f9142423          	sw	a7,-120(s0)
 ac0:	f9042623          	sw	a6,-116(s0)
 ac4:	f8a42823          	sw	a0,-112(s0)
 ac8:	f8b42a23          	sw	a1,-108(s0)
 acc:	f8c42c23          	sw	a2,-104(s0)
 ad0:	f8d42e23          	sw	a3,-100(s0)
 ad4:	fae42023          	sw	a4,-96(s0)
 ad8:	faf42223          	sw	a5,-92(s0)
 adc:	f6042023          	sw	zero,-160(s0)
 ae0:	f6042223          	sw	zero,-156(s0)
 ae4:	f6042423          	sw	zero,-152(s0)
 ae8:	f6042623          	sw	zero,-148(s0)
 aec:	f6042823          	sw	zero,-144(s0)
 af0:	f6042a23          	sw	zero,-140(s0)
 af4:	f6042c23          	sw	zero,-136(s0)
 af8:	f6042e23          	sw	zero,-132(s0)
 afc:	f8042023          	sw	zero,-128(s0)
 b00:	004007b7          	lui	a5,0x400
 b04:	08478513          	addi	a0,a5,132 # 400084 <_endtext+0x3ff0ac>
 b08:	e6cff0ef          	jal	ra,174 <rvc_printf>
 b0c:	fe042623          	sw	zero,-20(s0)
 b10:	0780006f          	j	b88 <matrix_calc+0x16c>
 b14:	fe042423          	sw	zero,-24(s0)
 b18:	04c0006f          	j	b64 <matrix_calc+0x148>
 b1c:	fec42703          	lw	a4,-20(s0)
 b20:	00070793          	mv	a5,a4
 b24:	00179793          	slli	a5,a5,0x1
 b28:	00e787b3          	add	a5,a5,a4
 b2c:	fe842703          	lw	a4,-24(s0)
 b30:	00e787b3          	add	a5,a5,a4
 b34:	00279793          	slli	a5,a5,0x2
 b38:	ff040713          	addi	a4,s0,-16
 b3c:	00f707b3          	add	a5,a4,a5
 b40:	fb87a783          	lw	a5,-72(a5)
 b44:	00078513          	mv	a0,a5
 b48:	8ddff0ef          	jal	ra,424 <rvc_print_int>
 b4c:	004007b7          	lui	a5,0x400
 b50:	09078513          	addi	a0,a5,144 # 400090 <_endtext+0x3ff0b8>
 b54:	e20ff0ef          	jal	ra,174 <rvc_printf>
 b58:	fe842783          	lw	a5,-24(s0)
 b5c:	00178793          	addi	a5,a5,1
 b60:	fef42423          	sw	a5,-24(s0)
 b64:	fe842703          	lw	a4,-24(s0)
 b68:	00200793          	li	a5,2
 b6c:	fae7d8e3          	bge	a5,a4,b1c <matrix_calc+0x100>
 b70:	004007b7          	lui	a5,0x400
 b74:	09478513          	addi	a0,a5,148 # 400094 <_endtext+0x3ff0bc>
 b78:	dfcff0ef          	jal	ra,174 <rvc_printf>
 b7c:	fec42783          	lw	a5,-20(s0)
 b80:	00178793          	addi	a5,a5,1
 b84:	fef42623          	sw	a5,-20(s0)
 b88:	fec42703          	lw	a4,-20(s0)
 b8c:	00200793          	li	a5,2
 b90:	f8e7d2e3          	bge	a5,a4,b14 <matrix_calc+0xf8>
 b94:	004007b7          	lui	a5,0x400
 b98:	09878513          	addi	a0,a5,152 # 400098 <_endtext+0x3ff0c0>
 b9c:	dd8ff0ef          	jal	ra,174 <rvc_printf>
 ba0:	fe042223          	sw	zero,-28(s0)
 ba4:	0780006f          	j	c1c <matrix_calc+0x200>
 ba8:	fe042023          	sw	zero,-32(s0)
 bac:	04c0006f          	j	bf8 <matrix_calc+0x1dc>
 bb0:	fe442703          	lw	a4,-28(s0)
 bb4:	00070793          	mv	a5,a4
 bb8:	00179793          	slli	a5,a5,0x1
 bbc:	00e787b3          	add	a5,a5,a4
 bc0:	fe042703          	lw	a4,-32(s0)
 bc4:	00e787b3          	add	a5,a5,a4
 bc8:	00279793          	slli	a5,a5,0x2
 bcc:	ff040713          	addi	a4,s0,-16
 bd0:	00f707b3          	add	a5,a4,a5
 bd4:	f947a783          	lw	a5,-108(a5)
 bd8:	00078513          	mv	a0,a5
 bdc:	849ff0ef          	jal	ra,424 <rvc_print_int>
 be0:	004007b7          	lui	a5,0x400
 be4:	09078513          	addi	a0,a5,144 # 400090 <_endtext+0x3ff0b8>
 be8:	d8cff0ef          	jal	ra,174 <rvc_printf>
 bec:	fe042783          	lw	a5,-32(s0)
 bf0:	00178793          	addi	a5,a5,1
 bf4:	fef42023          	sw	a5,-32(s0)
 bf8:	fe042703          	lw	a4,-32(s0)
 bfc:	00200793          	li	a5,2
 c00:	fae7d8e3          	bge	a5,a4,bb0 <matrix_calc+0x194>
 c04:	004007b7          	lui	a5,0x400
 c08:	09478513          	addi	a0,a5,148 # 400094 <_endtext+0x3ff0bc>
 c0c:	d68ff0ef          	jal	ra,174 <rvc_printf>
 c10:	fe442783          	lw	a5,-28(s0)
 c14:	00178793          	addi	a5,a5,1
 c18:	fef42223          	sw	a5,-28(s0)
 c1c:	fe442703          	lw	a4,-28(s0)
 c20:	00200793          	li	a5,2
 c24:	f8e7d2e3          	bge	a5,a4,ba8 <matrix_calc+0x18c>
 c28:	fc042e23          	sw	zero,-36(s0)
 c2c:	1040006f          	j	d30 <matrix_calc+0x314>
 c30:	fc042c23          	sw	zero,-40(s0)
 c34:	0e40006f          	j	d18 <matrix_calc+0x2fc>
 c38:	fc042a23          	sw	zero,-44(s0)
 c3c:	0c40006f          	j	d00 <matrix_calc+0x2e4>
 c40:	fdc42703          	lw	a4,-36(s0)
 c44:	00070793          	mv	a5,a4
 c48:	00179793          	slli	a5,a5,0x1
 c4c:	00e787b3          	add	a5,a5,a4
 c50:	fd842703          	lw	a4,-40(s0)
 c54:	00e787b3          	add	a5,a5,a4
 c58:	00279793          	slli	a5,a5,0x2
 c5c:	ff040713          	addi	a4,s0,-16
 c60:	00f707b3          	add	a5,a4,a5
 c64:	f707a483          	lw	s1,-144(a5)
 c68:	fdc42703          	lw	a4,-36(s0)
 c6c:	00070793          	mv	a5,a4
 c70:	00179793          	slli	a5,a5,0x1
 c74:	00e787b3          	add	a5,a5,a4
 c78:	fd442703          	lw	a4,-44(s0)
 c7c:	00e787b3          	add	a5,a5,a4
 c80:	00279793          	slli	a5,a5,0x2
 c84:	ff040713          	addi	a4,s0,-16
 c88:	00f707b3          	add	a5,a4,a5
 c8c:	fb87a683          	lw	a3,-72(a5)
 c90:	fd442703          	lw	a4,-44(s0)
 c94:	00070793          	mv	a5,a4
 c98:	00179793          	slli	a5,a5,0x1
 c9c:	00e787b3          	add	a5,a5,a4
 ca0:	fd842703          	lw	a4,-40(s0)
 ca4:	00e787b3          	add	a5,a5,a4
 ca8:	00279793          	slli	a5,a5,0x2
 cac:	ff040713          	addi	a4,s0,-16
 cb0:	00f707b3          	add	a5,a4,a5
 cb4:	f947a783          	lw	a5,-108(a5)
 cb8:	00078593          	mv	a1,a5
 cbc:	00068513          	mv	a0,a3
 cc0:	240000ef          	jal	ra,f00 <__mulsi3>
 cc4:	00050793          	mv	a5,a0
 cc8:	00f486b3          	add	a3,s1,a5
 ccc:	fdc42703          	lw	a4,-36(s0)
 cd0:	00070793          	mv	a5,a4
 cd4:	00179793          	slli	a5,a5,0x1
 cd8:	00e787b3          	add	a5,a5,a4
 cdc:	fd842703          	lw	a4,-40(s0)
 ce0:	00e787b3          	add	a5,a5,a4
 ce4:	00279793          	slli	a5,a5,0x2
 ce8:	ff040713          	addi	a4,s0,-16
 cec:	00f707b3          	add	a5,a4,a5
 cf0:	f6d7a823          	sw	a3,-144(a5)
 cf4:	fd442783          	lw	a5,-44(s0)
 cf8:	00178793          	addi	a5,a5,1
 cfc:	fcf42a23          	sw	a5,-44(s0)
 d00:	fd442703          	lw	a4,-44(s0)
 d04:	00200793          	li	a5,2
 d08:	f2e7dce3          	bge	a5,a4,c40 <matrix_calc+0x224>
 d0c:	fd842783          	lw	a5,-40(s0)
 d10:	00178793          	addi	a5,a5,1
 d14:	fcf42c23          	sw	a5,-40(s0)
 d18:	fd842703          	lw	a4,-40(s0)
 d1c:	00200793          	li	a5,2
 d20:	f0e7dce3          	bge	a5,a4,c38 <matrix_calc+0x21c>
 d24:	fdc42783          	lw	a5,-36(s0)
 d28:	00178793          	addi	a5,a5,1
 d2c:	fcf42e23          	sw	a5,-36(s0)
 d30:	fdc42703          	lw	a4,-36(s0)
 d34:	00200793          	li	a5,2
 d38:	eee7dce3          	bge	a5,a4,c30 <matrix_calc+0x214>
 d3c:	004007b7          	lui	a5,0x400
 d40:	0a478513          	addi	a0,a5,164 # 4000a4 <_endtext+0x3ff0cc>
 d44:	c30ff0ef          	jal	ra,174 <rvc_printf>
 d48:	fc042823          	sw	zero,-48(s0)
 d4c:	0780006f          	j	dc4 <matrix_calc+0x3a8>
 d50:	fc042623          	sw	zero,-52(s0)
 d54:	04c0006f          	j	da0 <matrix_calc+0x384>
 d58:	fd042703          	lw	a4,-48(s0)
 d5c:	00070793          	mv	a5,a4
 d60:	00179793          	slli	a5,a5,0x1
 d64:	00e787b3          	add	a5,a5,a4
 d68:	fcc42703          	lw	a4,-52(s0)
 d6c:	00e787b3          	add	a5,a5,a4
 d70:	00279793          	slli	a5,a5,0x2
 d74:	ff040713          	addi	a4,s0,-16
 d78:	00f707b3          	add	a5,a4,a5
 d7c:	f707a783          	lw	a5,-144(a5)
 d80:	00078513          	mv	a0,a5
 d84:	ea0ff0ef          	jal	ra,424 <rvc_print_int>
 d88:	004007b7          	lui	a5,0x400
 d8c:	09078513          	addi	a0,a5,144 # 400090 <_endtext+0x3ff0b8>
 d90:	be4ff0ef          	jal	ra,174 <rvc_printf>
 d94:	fcc42783          	lw	a5,-52(s0)
 d98:	00178793          	addi	a5,a5,1
 d9c:	fcf42623          	sw	a5,-52(s0)
 da0:	fcc42703          	lw	a4,-52(s0)
 da4:	00200793          	li	a5,2
 da8:	fae7d8e3          	bge	a5,a4,d58 <matrix_calc+0x33c>
 dac:	004007b7          	lui	a5,0x400
 db0:	09478513          	addi	a0,a5,148 # 400094 <_endtext+0x3ff0bc>
 db4:	bc0ff0ef          	jal	ra,174 <rvc_printf>
 db8:	fd042783          	lw	a5,-48(s0)
 dbc:	00178793          	addi	a5,a5,1
 dc0:	fcf42823          	sw	a5,-48(s0)
 dc4:	fd042703          	lw	a4,-48(s0)
 dc8:	00200793          	li	a5,2
 dcc:	f8e7d2e3          	bge	a5,a4,d50 <matrix_calc+0x334>
 dd0:	00000013          	nop
 dd4:	00000013          	nop
 dd8:	09c12083          	lw	ra,156(sp)
 ddc:	09812403          	lw	s0,152(sp)
 de0:	09412483          	lw	s1,148(sp)
 de4:	0a010113          	addi	sp,sp,160
 de8:	00008067          	ret

00000dec <run_count>:
 dec:	fd010113          	addi	sp,sp,-48
 df0:	02112623          	sw	ra,44(sp)
 df4:	02812423          	sw	s0,40(sp)
 df8:	03010413          	addi	s0,sp,48
 dfc:	fca42e23          	sw	a0,-36(s0)
 e00:	fe042623          	sw	zero,-20(s0)
 e04:	0500006f          	j	e54 <run_count+0x68>
 e08:	fdc42783          	lw	a5,-36(s0)
 e0c:	00279793          	slli	a5,a5,0x2
 e10:	02800593          	li	a1,40
 e14:	00078513          	mv	a0,a5
 e18:	d64ff0ef          	jal	ra,37c <set_cursor>
 e1c:	fec42503          	lw	a0,-20(s0)
 e20:	e04ff0ef          	jal	ra,424 <rvc_print_int>
 e24:	fe042423          	sw	zero,-24(s0)
 e28:	0100006f          	j	e38 <run_count+0x4c>
 e2c:	fe842783          	lw	a5,-24(s0)
 e30:	00178793          	addi	a5,a5,1
 e34:	fef42423          	sw	a5,-24(s0)
 e38:	fe842703          	lw	a4,-24(s0)
 e3c:	000027b7          	lui	a5,0x2
 e40:	70f78793          	addi	a5,a5,1807 # 270f <_endtext+0x1737>
 e44:	fee7d4e3          	bge	a5,a4,e2c <run_count+0x40>
 e48:	fec42783          	lw	a5,-20(s0)
 e4c:	00178793          	addi	a5,a5,1
 e50:	fef42623          	sw	a5,-20(s0)
 e54:	fec42703          	lw	a4,-20(s0)
 e58:	3b9ad7b7          	lui	a5,0x3b9ad
 e5c:	9ff78793          	addi	a5,a5,-1537 # 3b9ac9ff <_stack+0x3b5ab5ff>
 e60:	fae7d4e3          	bge	a5,a4,e08 <run_count+0x1c>
 e64:	0000006f          	j	e64 <run_count+0x78>

00000e68 <main>:
 e68:	fe010113          	addi	sp,sp,-32
 e6c:	00112e23          	sw	ra,28(sp)
 e70:	00812c23          	sw	s0,24(sp)
 e74:	02010413          	addi	s0,sp,32
 e78:	00c007b7          	lui	a5,0xc00
 e7c:	0007a783          	lw	a5,0(a5) # c00000 <_stack+0x7fec00>
 e80:	fef42623          	sw	a5,-20(s0)
 e84:	d3cff0ef          	jal	ra,3c0 <clear_screen>
 e88:	fec42703          	lw	a4,-20(s0)
 e8c:	00600793          	li	a5,6
 e90:	02f70e63          	beq	a4,a5,ecc <main+0x64>
 e94:	fec42703          	lw	a4,-20(s0)
 e98:	00600793          	li	a5,6
 e9c:	02e7cc63          	blt	a5,a4,ed4 <main+0x6c>
 ea0:	fec42703          	lw	a4,-20(s0)
 ea4:	00400793          	li	a5,4
 ea8:	00f70a63          	beq	a4,a5,ebc <main+0x54>
 eac:	fec42703          	lw	a4,-20(s0)
 eb0:	00500793          	li	a5,5
 eb4:	00f70863          	beq	a4,a5,ec4 <main+0x5c>
 eb8:	01c0006f          	j	ed4 <main+0x6c>
 ebc:	a59ff0ef          	jal	ra,914 <run_t0>
 ec0:	0180006f          	j	ed8 <main+0x70>
 ec4:	b2dff0ef          	jal	ra,9f0 <run_t1>
 ec8:	0100006f          	j	ed8 <main+0x70>
 ecc:	b51ff0ef          	jal	ra,a1c <matrix_calc>
 ed0:	ffdff06f          	j	ecc <main+0x64>
 ed4:	0000006f          	j	ed4 <main+0x6c>
 ed8:	fec42703          	lw	a4,-20(s0)
 edc:	00400793          	li	a5,4
 ee0:	00f70463          	beq	a4,a5,ee8 <main+0x80>
 ee4:	0000006f          	j	ee4 <main+0x7c>
 ee8:	00000793          	li	a5,0
 eec:	00078513          	mv	a0,a5
 ef0:	01c12083          	lw	ra,28(sp)
 ef4:	01812403          	lw	s0,24(sp)
 ef8:	02010113          	addi	sp,sp,32
 efc:	00008067          	ret

00000f00 <__mulsi3>:
 f00:	00050613          	mv	a2,a0
 f04:	00000513          	li	a0,0
 f08:	0015f693          	andi	a3,a1,1
 f0c:	00068463          	beqz	a3,f14 <__mulsi3+0x14>
 f10:	00c50533          	add	a0,a0,a2
 f14:	0015d593          	srli	a1,a1,0x1
 f18:	00161613          	slli	a2,a2,0x1
 f1c:	fe0596e3          	bnez	a1,f08 <__mulsi3+0x8>
 f20:	00008067          	ret

00000f24 <__divsi3>:
 f24:	06054063          	bltz	a0,f84 <__umodsi3+0x10>
 f28:	0605c663          	bltz	a1,f94 <__umodsi3+0x20>

00000f2c <__udivsi3>:
 f2c:	00058613          	mv	a2,a1
 f30:	00050593          	mv	a1,a0
 f34:	fff00513          	li	a0,-1
 f38:	02060c63          	beqz	a2,f70 <__udivsi3+0x44>
 f3c:	00100693          	li	a3,1
 f40:	00b67a63          	bgeu	a2,a1,f54 <__udivsi3+0x28>
 f44:	00c05863          	blez	a2,f54 <__udivsi3+0x28>
 f48:	00161613          	slli	a2,a2,0x1
 f4c:	00169693          	slli	a3,a3,0x1
 f50:	feb66ae3          	bltu	a2,a1,f44 <__udivsi3+0x18>
 f54:	00000513          	li	a0,0
 f58:	00c5e663          	bltu	a1,a2,f64 <__udivsi3+0x38>
 f5c:	40c585b3          	sub	a1,a1,a2
 f60:	00d56533          	or	a0,a0,a3
 f64:	0016d693          	srli	a3,a3,0x1
 f68:	00165613          	srli	a2,a2,0x1
 f6c:	fe0696e3          	bnez	a3,f58 <__udivsi3+0x2c>
 f70:	00008067          	ret

00000f74 <__umodsi3>:
 f74:	00008293          	mv	t0,ra
 f78:	fb5ff0ef          	jal	ra,f2c <__udivsi3>
 f7c:	00058513          	mv	a0,a1
 f80:	00028067          	jr	t0
 f84:	40a00533          	neg	a0,a0
 f88:	00b04863          	bgtz	a1,f98 <__umodsi3+0x24>
 f8c:	40b005b3          	neg	a1,a1
 f90:	f9dff06f          	j	f2c <__udivsi3>
 f94:	40b005b3          	neg	a1,a1
 f98:	00008293          	mv	t0,ra
 f9c:	f91ff0ef          	jal	ra,f2c <__udivsi3>
 fa0:	40a00533          	neg	a0,a0
 fa4:	00028067          	jr	t0

00000fa8 <__modsi3>:
 fa8:	00008293          	mv	t0,ra
 fac:	0005ca63          	bltz	a1,fc0 <__modsi3+0x18>
 fb0:	00054c63          	bltz	a0,fc8 <__modsi3+0x20>
 fb4:	f79ff0ef          	jal	ra,f2c <__udivsi3>
 fb8:	00058513          	mv	a0,a1
 fbc:	00028067          	jr	t0
 fc0:	40b005b3          	neg	a1,a1
 fc4:	fe0558e3          	bgez	a0,fb4 <__modsi3+0xc>
 fc8:	40a00533          	neg	a0,a0
 fcc:	f61ff0ef          	jal	ra,f2c <__udivsi3>
 fd0:	40b00533          	neg	a0,a1
 fd4:	00028067          	jr	t0
